target datalayout = "e-m:e-p270:32:32-p271:32:32-p272:64:64-i64:64-i128:128-f80:128-n8:16:32:64-S128"
target triple = "x86_64-unknown-linux-gnu"

%"class.std::__cxx11::basic_string" = type { %"struct.std::__cxx11::basic_string<char>::_Alloc_hider", i64, %union.anon }
%"struct.std::__cxx11::basic_string<char>::_Alloc_hider" = type { ptr }
%union.anon = type { i64, [8 x i8] }
%"class.std::allocator.0" = type { i8 }
%"class.Assimp::XFileExporter" = type { ptr, %"class.std::__cxx11::basic_stringstream", ptr, ptr, %"class.std::__cxx11::basic_string", %"class.std::__cxx11::basic_string", ptr, i8, %"class.std::__cxx11::basic_string", %"class.std::__cxx11::basic_string" }
%"class.std::__cxx11::basic_stringstream" = type { %"class.std::basic_iostream.base", %"class.std::__cxx11::basic_stringbuf", %"class.std::basic_ios" }
%"class.std::basic_iostream.base" = type { %"class.std::basic_istream.base", %"class.std::basic_ostream.base" }
%"class.std::basic_istream.base" = type { ptr, i64 }
%"class.std::basic_ostream.base" = type { ptr }
%"class.std::__cxx11::basic_stringbuf" = type { %"class.std::basic_streambuf", i32, %"class.std::__cxx11::basic_string" }
%"class.std::basic_streambuf" = type { ptr, ptr, ptr, ptr, ptr, ptr, ptr, %"class.std::locale" }
%"class.std::locale" = type { ptr }
%"class.std::basic_ios" = type { %"class.std::ios_base", ptr, i8, i8, ptr, ptr, ptr, ptr }
%"class.std::ios_base" = type { ptr, i64, i64, i32, i32, i32, ptr, %"struct.std::ios_base::_Words", [8 x %"struct.std::ios_base::_Words"], i32, ptr, %"class.std::locale" }
%"struct.std::ios_base::_Words" = type { ptr, i64 }

@_ZTVN6Assimp13XFileExporterE = hidden unnamed_addr constant { [4 x ptr] } { [4 x ptr] [ptr null, ptr @_ZTIN6Assimp13XFileExporterE, ptr @_ZN6Assimp13XFileExporterD1Ev, ptr @_ZN6Assimp13XFileExporterD0Ev] }, align 8
@.str.4 = private unnamed_addr constant [2 x i8] c"\0A\00", align 1
@.str.5 = private unnamed_addr constant [2 x i8] c"C\00", align 1
@.str.105 = private unnamed_addr constant [50 x i8] c"basic_string: construction from null is not valid\00", align 1

; Function Attrs: mustprogress nounwind uwtable
define linkonce_odr noundef i64 @_ZNSt11char_traitsIcE6lengthEPKc(ptr noundef %__s) #0 comdat align 2 {
entry:
  %__s.addr = alloca ptr, align 8
  store ptr %__s, ptr %__s.addr, align 8
  %0 = load ptr, ptr %__s.addr, align 8
  %call = call i64 @strlen(ptr noundef %0) #11
  ret i64 %call
}

; Function Attrs: mustprogress nounwind uwtable
define linkonce_odr void @_ZNSt7__cxx1112basic_stringIcSt11char_traitsIcESaIcEE12_Alloc_hiderD2Ev(ptr noundef nonnull align 8 dereferenceable(8) %this) unnamed_addr #0 comdat align 2 {
entry:
  %this.addr = alloca ptr, align 8
  store ptr %this, ptr %this.addr, align 8
  %this1 = load ptr, ptr %this.addr, align 8
  call void @_ZNSaIcED2Ev(ptr noundef nonnull align 1 dereferenceable(1) %this1) #11
  ret void
}

; Function Attrs: mustprogress nounwind uwtable
define linkonce_odr noundef i64 @_ZNSt8ios_base9precisionEl(ptr noundef nonnull align 8 dereferenceable(216) %this, i64 noundef %__prec) #0 comdat align 2 {
entry:
  %this.addr = alloca ptr, align 8
  %__prec.addr = alloca i64, align 8
  %__old = alloca i64, align 8
  store ptr %this, ptr %this.addr, align 8
  store i64 %__prec, ptr %__prec.addr, align 8
  %this1 = load ptr, ptr %this.addr, align 8
  %_M_precision = getelementptr inbounds %"class.std::ios_base", ptr %this1, i32 0, i32 1
  %0 = load i64, ptr %_M_precision, align 8
  store i64 %0, ptr %__old, align 8
  %1 = load i64, ptr %__prec.addr, align 8
  %_M_precision2 = getelementptr inbounds %"class.std::ios_base", ptr %this1, i32 0, i32 1
  store i64 %1, ptr %_M_precision2, align 8
  %2 = load i64, ptr %__old, align 8
  ret i64 %2
}

; Function Attrs: mustprogress uwtable
define linkonce_odr void @_ZNSt7__cxx1112basic_stringIcSt11char_traitsIcESaIcEEC2IS3_EEPKcRKS3_(ptr noundef nonnull align 8 dereferenceable(32) %this, ptr noundef %__s, ptr noundef nonnull align 1 dereferenceable(1) %__a) unnamed_addr #2 comdat align 2 personality ptr @__gxx_personality_v0 {
entry:
  %this.addr = alloca ptr, align 8
  %__s.addr = alloca ptr, align 8
  %__a.addr = alloca ptr, align 8
  %exn.slot = alloca ptr, align 8
  %ehselector.slot = alloca i32, align 4
  %__end = alloca ptr, align 8
  store ptr %this, ptr %this.addr, align 8
  store ptr %__s, ptr %__s.addr, align 8
  store ptr %__a, ptr %__a.addr, align 8
  %this1 = load ptr, ptr %this.addr, align 8
  %_M_dataplus = getelementptr inbounds %"class.std::__cxx11::basic_string", ptr %this1, i32 0, i32 0
  %call = call noundef ptr @_ZNSt7__cxx1112basic_stringIcSt11char_traitsIcESaIcEE13_M_local_dataEv(ptr noundef nonnull align 8 dereferenceable(32) %this1)
  %0 = load ptr, ptr %__a.addr, align 8
  call void @_ZNSt7__cxx1112basic_stringIcSt11char_traitsIcESaIcEE12_Alloc_hiderC1EPcRKS3_(ptr noundef nonnull align 8 dereferenceable(8) %_M_dataplus, ptr noundef %call, ptr noundef nonnull align 1 dereferenceable(1) %0)
  %1 = load ptr, ptr %__s.addr, align 8
  %cmp = icmp eq ptr %1, null
  br i1 %cmp, label %if.then, label %if.end

if.then:                                          ; preds = %entry
  invoke void @_ZSt19__throw_logic_errorPKc(ptr noundef @.str.105) #12
          to label %invoke.cont unwind label %lpad

invoke.cont:                                      ; preds = %if.then
  unreachable

lpad:                                             ; preds = %invoke.cont2, %if.end, %if.then
  %2 = landingpad { ptr, i32 }
          cleanup
  %3 = extractvalue { ptr, i32 } %2, 0
  store ptr %3, ptr %exn.slot, align 8
  %4 = extractvalue { ptr, i32 } %2, 1
  store i32 %4, ptr %ehselector.slot, align 4
  call void @_ZNSt7__cxx1112basic_stringIcSt11char_traitsIcESaIcEE12_Alloc_hiderD2Ev(ptr noundef nonnull align 8 dereferenceable(8) %_M_dataplus) #11
  br label %eh.resume

if.end:                                           ; preds = %entry
  %5 = load ptr, ptr %__s.addr, align 8
  %6 = load ptr, ptr %__s.addr, align 8
  %call3 = invoke noundef i64 @_ZNSt11char_traitsIcE6lengthEPKc(ptr noundef %6)
          to label %invoke.cont2 unwind label %lpad

invoke.cont2:                                     ; preds = %if.end
  %add.ptr = getelementptr inbounds i8, ptr %5, i64 %call3
  store ptr %add.ptr, ptr %__end, align 8
  %7 = load ptr, ptr %__s.addr, align 8
  %8 = load ptr, ptr %__end, align 8
  invoke void @_ZNSt7__cxx1112basic_stringIcSt11char_traitsIcESaIcEE12_M_constructIPKcEEvT_S8_St20forward_iterator_tag(ptr noundef nonnull align 8 dereferenceable(32) %this1, ptr noundef %7, ptr noundef %8)
          to label %invoke.cont4 unwind label %lpad

invoke.cont4:                                     ; preds = %invoke.cont2
  ret void

eh.resume:                                        ; preds = %lpad
  %exn = load ptr, ptr %exn.slot, align 8
  %sel = load i32, ptr %ehselector.slot, align 4
  %lpad.val = insertvalue { ptr, i32 } poison, ptr %exn, 0
  %lpad.val5 = insertvalue { ptr, i32 } %lpad.val, i32 %sel, 1
  resume { ptr, i32 } %lpad.val5
}

; Function Attrs: mustprogress uwtable
define hidden void @_ZN6Assimp13XFileExporterC2EPK7aiScenePNS_8IOSystemERKNSt7__cxx1112basic_stringIcSt11char_traitsIcESaIcEEESD_PKNS_16ExportPropertiesE(ptr noundef nonnull align 8 dereferenceable(560) %this, ptr noundef %pScene, ptr noundef %pIOSystem, ptr noundef nonnull align 8 dereferenceable(32) %path, ptr noundef nonnull align 8 dereferenceable(32) %file, ptr noundef %pProperties) unnamed_addr #2 align 2 personality ptr @__gxx_personality_v0 {
entry:
  %this.addr = alloca ptr, align 8
  %pScene.addr = alloca ptr, align 8
  %pIOSystem.addr = alloca ptr, align 8
  %path.addr = alloca ptr, align 8
  %file.addr = alloca ptr, align 8
  %pProperties.addr = alloca ptr, align 8
  %exn.slot = alloca ptr, align 8
  %ehselector.slot = alloca i32, align 4
  %ref.tmp = alloca %"class.std::allocator.0", align 1
  %agg.tmp.ensured = alloca %"class.std::locale", align 8
  %ref.tmp7 = alloca %"class.std::locale", align 8
  store ptr %this, ptr %this.addr, align 8
  store ptr %pScene, ptr %pScene.addr, align 8
  store ptr %pIOSystem, ptr %pIOSystem.addr, align 8
  store ptr %path, ptr %path.addr, align 8
  store ptr %file, ptr %file.addr, align 8
  store ptr %pProperties, ptr %pProperties.addr, align 8
  %this1 = load ptr, ptr %this.addr, align 8
  store ptr getelementptr inbounds ({ [4 x ptr] }, ptr @_ZTVN6Assimp13XFileExporterE, i32 0, i32 0, i32 2), ptr %this1, align 8
  %mOutput = getelementptr inbounds %"class.Assimp::XFileExporter", ptr %this1, i32 0, i32 1
  call void @_ZNSt7__cxx1118basic_stringstreamIcSt11char_traitsIcESaIcEEC1Ev(ptr noundef nonnull align 8 dereferenceable(128) %mOutput)
  %mProperties = getelementptr inbounds %"class.Assimp::XFileExporter", ptr %this1, i32 0, i32 2
  %0 = load ptr, ptr %pProperties.addr, align 8
  store ptr %0, ptr %mProperties, align 8
  %mIOSystem = getelementptr inbounds %"class.Assimp::XFileExporter", ptr %this1, i32 0, i32 3
  %1 = load ptr, ptr %pIOSystem.addr, align 8
  store ptr %1, ptr %mIOSystem, align 8
  %mPath = getelementptr inbounds %"class.Assimp::XFileExporter", ptr %this1, i32 0, i32 4
  %2 = load ptr, ptr %path.addr, align 8
  invoke void @_ZNSt7__cxx1112basic_stringIcSt11char_traitsIcESaIcEEC1ERKS4_(ptr noundef nonnull align 8 dereferenceable(32) %mPath, ptr noundef nonnull align 8 dereferenceable(32) %2)
          to label %invoke.cont unwind label %lpad

invoke.cont:                                      ; preds = %entry
  %mFile = getelementptr inbounds %"class.Assimp::XFileExporter", ptr %this1, i32 0, i32 5
  %3 = load ptr, ptr %file.addr, align 8
  invoke void @_ZNSt7__cxx1112basic_stringIcSt11char_traitsIcESaIcEEC1ERKS4_(ptr noundef nonnull align 8 dereferenceable(32) %mFile, ptr noundef nonnull align 8 dereferenceable(32) %3)
          to label %invoke.cont3 unwind label %lpad2

invoke.cont3:                                     ; preds = %invoke.cont
  %mScene = getelementptr inbounds %"class.Assimp::XFileExporter", ptr %this1, i32 0, i32 6
  %4 = load ptr, ptr %pScene.addr, align 8
  store ptr %4, ptr %mScene, align 8
  %mSceneOwned = getelementptr inbounds %"class.Assimp::XFileExporter", ptr %this1, i32 0, i32 7
  store i8 0, ptr %mSceneOwned, align 8
  %startstr = getelementptr inbounds %"class.Assimp::XFileExporter", ptr %this1, i32 0, i32 8
  call void @_ZNSt7__cxx1112basic_stringIcSt11char_traitsIcESaIcEEC1Ev(ptr noundef nonnull align 8 dereferenceable(32) %startstr) #11
  %endstr = getelementptr inbounds %"class.Assimp::XFileExporter", ptr %this1, i32 0, i32 9
  call void @_ZNSaIcEC1Ev(ptr noundef nonnull align 1 dereferenceable(1) %ref.tmp) #11
  invoke void @_ZNSt7__cxx1112basic_stringIcSt11char_traitsIcESaIcEEC2IS3_EEPKcRKS3_(ptr noundef nonnull align 8 dereferenceable(32) %endstr, ptr noundef @.str.4, ptr noundef nonnull align 1 dereferenceable(1) %ref.tmp)
          to label %invoke.cont5 unwind label %lpad4

invoke.cont5:                                     ; preds = %invoke.cont3
  call void @_ZNSaIcED1Ev(ptr noundef nonnull align 1 dereferenceable(1) %ref.tmp) #11
  %mOutput6 = getelementptr inbounds %"class.Assimp::XFileExporter", ptr %this1, i32 0, i32 1
  %vtable = load ptr, ptr %mOutput6, align 8
  %vbase.offset.ptr = getelementptr i8, ptr %vtable, i64 -24
  %vbase.offset = load i64, ptr %vbase.offset.ptr, align 8
  %add.ptr = getelementptr inbounds i8, ptr %mOutput6, i64 %vbase.offset
  invoke void @_ZNSt6localeC1EPKc(ptr noundef nonnull align 8 dereferenceable(8) %ref.tmp7, ptr noundef @.str.5)
          to label %invoke.cont9 unwind label %lpad8

invoke.cont9:                                     ; preds = %invoke.cont5
  invoke void @_ZNSt9basic_iosIcSt11char_traitsIcEE5imbueERKSt6locale(ptr sret(%"class.std::locale") align 8 %agg.tmp.ensured, ptr noundef nonnull align 8 dereferenceable(264) %add.ptr, ptr noundef nonnull align 8 dereferenceable(8) %ref.tmp7)
          to label %invoke.cont11 unwind label %lpad10

invoke.cont11:                                    ; preds = %invoke.cont9
  call void @_ZNSt6localeD1Ev(ptr noundef nonnull align 8 dereferenceable(8) %agg.tmp.ensured) #11
  call void @_ZNSt6localeD1Ev(ptr noundef nonnull align 8 dereferenceable(8) %ref.tmp7) #11
  %mOutput12 = getelementptr inbounds %"class.Assimp::XFileExporter", ptr %this1, i32 0, i32 1
  %vtable13 = load ptr, ptr %mOutput12, align 8
  %vbase.offset.ptr14 = getelementptr i8, ptr %vtable13, i64 -24
  %vbase.offset15 = load i64, ptr %vbase.offset.ptr14, align 8
  %add.ptr16 = getelementptr inbounds i8, ptr %mOutput12, i64 %vbase.offset15
  %call = invoke noundef i64 @_ZNSt8ios_base9precisionEl(ptr noundef nonnull align 8 dereferenceable(216) %add.ptr16, i64 noundef 9)
          to label %invoke.cont17 unwind label %lpad8

invoke.cont17:                                    ; preds = %invoke.cont11
  invoke void @_ZN6Assimp13XFileExporter9WriteFileEv(ptr noundef nonnull align 8 dereferenceable(560) %this1)
          to label %invoke.cont18 unwind label %lpad8

invoke.cont18:                                    ; preds = %invoke.cont17
  ret void

lpad:                                             ; preds = %entry
  %5 = landingpad { ptr, i32 }
          cleanup
  %6 = extractvalue { ptr, i32 } %5, 0
  store ptr %6, ptr %exn.slot, align 8
  %7 = extractvalue { ptr, i32 } %5, 1
  store i32 %7, ptr %ehselector.slot, align 4
  br label %ehcleanup22

lpad2:                                            ; preds = %invoke.cont
  %8 = landingpad { ptr, i32 }
          cleanup
  %9 = extractvalue { ptr, i32 } %8, 0
  store ptr %9, ptr %exn.slot, align 8
  %10 = extractvalue { ptr, i32 } %8, 1
  store i32 %10, ptr %ehselector.slot, align 4
  br label %ehcleanup21

lpad4:                                            ; preds = %invoke.cont3
  %11 = landingpad { ptr, i32 }
          cleanup
  %12 = extractvalue { ptr, i32 } %11, 0
  store ptr %12, ptr %exn.slot, align 8
  %13 = extractvalue { ptr, i32 } %11, 1
  store i32 %13, ptr %ehselector.slot, align 4
  call void @_ZNSaIcED1Ev(ptr noundef nonnull align 1 dereferenceable(1) %ref.tmp) #11
  br label %ehcleanup19

lpad8:                                            ; preds = %invoke.cont17, %invoke.cont11, %invoke.cont5
  %14 = landingpad { ptr, i32 }
          cleanup
  %15 = extractvalue { ptr, i32 } %14, 0
  store ptr %15, ptr %exn.slot, align 8
  %16 = extractvalue { ptr, i32 } %14, 1
  store i32 %16, ptr %ehselector.slot, align 4
  br label %ehcleanup

lpad10:                                           ; preds = %invoke.cont9
  %17 = landingpad { ptr, i32 }
          cleanup
  %18 = extractvalue { ptr, i32 } %17, 0
  store ptr %18, ptr %exn.slot, align 8
  %19 = extractvalue { ptr, i32 } %17, 1
  store i32 %19, ptr %ehselector.slot, align 4
  call void @_ZNSt6localeD1Ev(ptr noundef nonnull align 8 dereferenceable(8) %ref.tmp7) #11
  br label %ehcleanup

ehcleanup:                                        ; preds = %lpad10, %lpad8
  call void @_ZNSt7__cxx1112basic_stringIcSt11char_traitsIcESaIcEED1Ev(ptr noundef nonnull align 8 dereferenceable(32) %endstr) #11
  br label %ehcleanup19

ehcleanup19:                                      ; preds = %ehcleanup, %lpad4
  call void @_ZNSt7__cxx1112basic_stringIcSt11char_traitsIcESaIcEED1Ev(ptr noundef nonnull align 8 dereferenceable(32) %startstr) #11
  call void @_ZNSt7__cxx1112basic_stringIcSt11char_traitsIcESaIcEED1Ev(ptr noundef nonnull align 8 dereferenceable(32) %mFile) #11
  br label %ehcleanup21

ehcleanup21:                                      ; preds = %ehcleanup19, %lpad2
  call void @_ZNSt7__cxx1112basic_stringIcSt11char_traitsIcESaIcEED1Ev(ptr noundef nonnull align 8 dereferenceable(32) %mPath) #11
  br label %ehcleanup22

ehcleanup22:                                      ; preds = %ehcleanup21, %lpad
  call void @_ZNSt7__cxx1118basic_stringstreamIcSt11char_traitsIcESaIcEED1Ev(ptr noundef nonnull align 8 dereferenceable(128) %mOutput) #11
  br label %eh.resume

eh.resume:                                        ; preds = %ehcleanup22
  %exn = load ptr, ptr %exn.slot, align 8
  %sel = load i32, ptr %ehselector.slot, align 4
  %lpad.val = insertvalue { ptr, i32 } poison, ptr %exn, 0
  %lpad.val23 = insertvalue { ptr, i32 } %lpad.val, i32 %sel, 1
  resume { ptr, i32 } %lpad.val23
}