; Function Attrs: mustprogress uwtable
define hidden void @_ZN6Assimp13XFileExporterC2EPK7aiScenePNS_8IOSystemERKNSt7__cxx1112basic_stringIcSt11char_traitsIcESaIcEEESD_PKNS_16ExportPropertiesE(ptr noundef nonnull align 8 dereferenceable(560) %this, ptr noundef %pScene, ptr noundef %pIOSystem, ptr noundef nonnull align 8 dereferenceable(32) %path, ptr noundef nonnull align 8 dereferenceable(32) %file, ptr noundef %pProperties) unnamed_addr #0 align 2 personality ptr @__gxx_personality_v0 {
entry:
  %ref.tmp = alloca %"class.std::allocator.0", align 1
  %agg.tmp.ensured = alloca %"class.std::locale", align 8
  %ref.tmp7 = alloca %"class.std::locale", align 8
  store ptr getelementptr inbounds ({ [4 x ptr] }, ptr @_ZTVN6Assimp13XFileExporterE, i64 0, i32 0, i64 2), ptr %this, align 8
  %mOutput = getelementptr inbounds i8, ptr %this, i64 8
  tail call void @_ZNSt7__cxx1118basic_stringstreamIcSt11char_traitsIcESaIcEEC1Ev(ptr noundef nonnull align 8 dereferenceable(128) %mOutput)
  %mProperties = getelementptr inbounds i8, ptr %this, i64 400
  store ptr %pProperties, ptr %mProperties, align 8
  %mIOSystem = getelementptr inbounds i8, ptr %this, i64 408
  store ptr %pIOSystem, ptr %mIOSystem, align 8
  %mPath = getelementptr inbounds i8, ptr %this, i64 416
  invoke void @_ZNSt7__cxx1112basic_stringIcSt11char_traitsIcESaIcEEC1ERKS4_(ptr noundef nonnull align 8 dereferenceable(32) %mPath, ptr noundef nonnull align 8 dereferenceable(32) %path)
          to label %invoke.cont unwind label %lpad

invoke.cont:                                      ; preds = %entry
  %mFile = getelementptr inbounds i8, ptr %this, i64 448
  invoke void @_ZNSt7__cxx1112basic_stringIcSt11char_traitsIcESaIcEEC1ERKS4_(ptr noundef nonnull align 8 dereferenceable(32) %mFile, ptr noundef nonnull align 8 dereferenceable(32) %file)
          to label %invoke.cont3 unwind label %lpad2

invoke.cont3:                                     ; preds = %invoke.cont
  %mScene = getelementptr inbounds i8, ptr %this, i64 480
  store ptr %pScene, ptr %mScene, align 8
  %mSceneOwned = getelementptr inbounds i8, ptr %this, i64 488
  store i8 0, ptr %mSceneOwned, align 8
  %startstr = getelementptr inbounds i8, ptr %this, i64 496
  tail call void @_ZNSt7__cxx1112basic_stringIcSt11char_traitsIcESaIcEEC1Ev(ptr noundef nonnull align 8 dereferenceable(32) %startstr) #11
  %endstr = getelementptr inbounds i8, ptr %this, i64 528
  call void @_ZNSaIcEC1Ev(ptr noundef nonnull align 1 dereferenceable(1) %ref.tmp) #11
  %call.i5 = invoke noundef ptr @_ZNSt7__cxx1112basic_stringIcSt11char_traitsIcESaIcEE13_M_local_dataEv(ptr noundef nonnull align 8 dereferenceable(32) %endstr)
          to label %call.i.noexc unwind label %lpad4

call.i.noexc:                                     ; preds = %invoke.cont3
  invoke void @_ZNSt7__cxx1112basic_stringIcSt11char_traitsIcESaIcEE12_Alloc_hiderC1EPcRKS3_(ptr noundef nonnull align 8 dereferenceable(8) %endstr, ptr noundef %call.i5, ptr noundef nonnull align 1 dereferenceable(1) %ref.tmp)
          to label %.noexc unwind label %lpad4

.noexc:                                           ; preds = %call.i.noexc
  invoke void @_ZNSt7__cxx1112basic_stringIcSt11char_traitsIcESaIcEE12_M_constructIPKcEEvT_S8_St20forward_iterator_tag(ptr noundef nonnull align 8 dereferenceable(32) %endstr, ptr noundef nonnull @.str.4, ptr noundef nonnull getelementptr inbounds ([2 x i8], ptr @.str.4, i64 0, i64 1))
          to label %invoke.cont5 unwind label %lpad.i

lpad.i:                                           ; preds = %.noexc
  %0 = landingpad { ptr, i32 }
          cleanup
  call void @_ZNSaIcED2Ev(ptr noundef nonnull align 1 dereferenceable(1) %endstr) #11
  br label %lpad4.body

invoke.cont5:                                     ; preds = %.noexc
  call void @_ZNSaIcED1Ev(ptr noundef nonnull align 1 dereferenceable(1) %ref.tmp) #11
  %vtable = load ptr, ptr %mOutput, align 8
  %vbase.offset.ptr = getelementptr i8, ptr %vtable, i64 -24
  %vbase.offset = load i64, ptr %vbase.offset.ptr, align 8
  invoke void @_ZNSt6localeC1EPKc(ptr noundef nonnull align 8 dereferenceable(8) %ref.tmp7, ptr noundef nonnull @.str.5)
          to label %invoke.cont9 unwind label %lpad8

invoke.cont9:                                     ; preds = %invoke.cont5
  %add.ptr = getelementptr inbounds i8, ptr %mOutput, i64 %vbase.offset
  invoke void @_ZNSt9basic_iosIcSt11char_traitsIcEE5imbueERKSt6locale(ptr nonnull sret(%"class.std::locale") align 8 %agg.tmp.ensured, ptr noundef nonnull align 8 dereferenceable(264) %add.ptr, ptr noundef nonnull align 8 dereferenceable(8) %ref.tmp7)
          to label %invoke.cont11 unwind label %lpad10

invoke.cont11:                                    ; preds = %invoke.cont9
  call void @_ZNSt6localeD1Ev(ptr noundef nonnull align 8 dereferenceable(8) %agg.tmp.ensured) #11
  call void @_ZNSt6localeD1Ev(ptr noundef nonnull align 8 dereferenceable(8) %ref.tmp7) #11
  %vtable13 = load ptr, ptr %mOutput, align 8
  %vbase.offset.ptr14 = getelementptr i8, ptr %vtable13, i64 -24
  %vbase.offset15 = load i64, ptr %vbase.offset.ptr14, align 8
  %add.ptr16 = getelementptr inbounds i8, ptr %mOutput, i64 %vbase.offset15
  %_M_precision.i = getelementptr inbounds i8, ptr %add.ptr16, i64 8
  store i64 9, ptr %_M_precision.i, align 8
  invoke void @_ZN6Assimp13XFileExporter9WriteFileEv(ptr noundef nonnull align 8 dereferenceable(560) %this)
          to label %invoke.cont18 unwind label %lpad8

invoke.cont18:                                    ; preds = %invoke.cont11
  ret void

lpad:                                             ; preds = %entry
  %1 = landingpad { ptr, i32 }
          cleanup
  br label %ehcleanup22

lpad2:                                            ; preds = %invoke.cont
  %2 = landingpad { ptr, i32 }
          cleanup
  br label %ehcleanup21

lpad4:                                            ; preds = %call.i.noexc, %invoke.cont3
  %3 = landingpad { ptr, i32 }
          cleanup
  br label %lpad4.body

lpad4.body:                                       ; preds = %lpad.i, %lpad4
  %eh.lpad-body = phi { ptr, i32 } [ %3, %lpad4 ], [ %0, %lpad.i ]
  call void @_ZNSaIcED1Ev(ptr noundef nonnull align 1 dereferenceable(1) %ref.tmp) #11
  br label %ehcleanup19

lpad8:                                            ; preds = %invoke.cont11, %invoke.cont5
  %4 = landingpad { ptr, i32 }
          cleanup
  br label %ehcleanup

lpad10:                                           ; preds = %invoke.cont9
  %5 = landingpad { ptr, i32 }
          cleanup
  call void @_ZNSt6localeD1Ev(ptr noundef nonnull align 8 dereferenceable(8) %ref.tmp7) #11
  br label %ehcleanup

ehcleanup:                                        ; preds = %lpad10, %lpad8
  %.pn = phi { ptr, i32 } [ %4, %lpad8 ], [ %5, %lpad10 ]
  call void @_ZNSt7__cxx1112basic_stringIcSt11char_traitsIcESaIcEED1Ev(ptr noundef nonnull align 8 dereferenceable(32) %endstr) #11
  br label %ehcleanup19

ehcleanup19:                                      ; preds = %ehcleanup, %lpad4.body
  %.pn.pn = phi { ptr, i32 } [ %.pn, %ehcleanup ], [ %eh.lpad-body, %lpad4.body ]
  call void @_ZNSt7__cxx1112basic_stringIcSt11char_traitsIcESaIcEED1Ev(ptr noundef nonnull align 8 dereferenceable(32) %startstr) #11
  call void @_ZNSt7__cxx1112basic_stringIcSt11char_traitsIcESaIcEED1Ev(ptr noundef nonnull align 8 dereferenceable(32) %mFile) #11
  br label %ehcleanup21

ehcleanup21:                                      ; preds = %ehcleanup19, %lpad2
  %.pn.pn.pn = phi { ptr, i32 } [ %.pn.pn, %ehcleanup19 ], [ %2, %lpad2 ]
  call void @_ZNSt7__cxx1112basic_stringIcSt11char_traitsIcESaIcEED1Ev(ptr noundef nonnull align 8 dereferenceable(32) %mPath) #11
  br label %ehcleanup22

ehcleanup22:                                      ; preds = %ehcleanup21, %lpad
  %.pn.pn.pn.pn = phi { ptr, i32 } [ %.pn.pn.pn, %ehcleanup21 ], [ %1, %lpad ]
  call void @_ZNSt7__cxx1118basic_stringstreamIcSt11char_traitsIcESaIcEED1Ev(ptr noundef nonnull align 8 dereferenceable(128) %mOutput) #11
  resume { ptr, i32 } %.pn.pn.pn.pn
}